(dp0
S'Rv0238'
p1
(dp2
S'length'
p3
I567
sS'start_change'
p4
I-49
ssS'Rv1323'
p5
(dp6
g3
I1131
sg4
I-40
ssS'Rv1324'
p7
(dp8
g3
I882
sg4
I-34
ssS'Rv1321'
p9
(dp10
g3
I672
sg4
I-10
ssS'Rv3737'
p11
(dp12
g3
I1560
sg4
I-31
ssS'Rv0737'
p13
(dp14
g3
I570
sg4
I71
ssS'Rv3109'
p15
(dp16
g3
I948
sg4
I-133
ssS'Rv1853'
p17
(dp18
g3
I681
sg4
I53
ssS'Rv0738'
p19
(dp20
g3
I537
sg4
I-13
ssS'Rv0739'
p21
(dp22
g3
I804
sg4
I-4
ssS'Rv1523'
p23
(dp24
g3
I786
sg4
I-259
ssS'Rv1259'
p25
(dp26
g3
I813
sg4
I-88
ssS'Rv0619'
p27
(dp28
g3
I471
sg4
I-76
ssS'Rv0122'
p29
(dp30
g3
I183
sg4
I-187
ssS'Rv0041'
p31
(dp32
g3
I2877
sg4
I-34
ssS'Rv3780'
p33
(dp34
g3
I525
sg4
I-13
ssS'Rv2212'
p35
(dp36
g3
I1167
sg4
I29
ssS'Rv3789'
p37
(dp38
g3
I429
sg4
I62
ssS'Rv3195'
p39
(dp40
g3
I1401
sg4
I-19
ssS'Rv3196'
p41
(dp42
g3
I825
sg4
I-76
ssS'Rv0604'
p43
(dp44
g3
I927
sg4
I-25
ssS'Rv0605'
p45
(dp46
g3
I585
sg4
I-25
ssS'Rv0607'
p47
(dp48
g3
I471
sg4
I83
ssS'Rv2355'
p49
(dp50
g3
I885
sg4
I-103
ssS'Rv1358'
p51
(dp52
g3
I3375
sg4
I-106
ssS'Rv0648'
p53
(dp54
g3
I3732
sg4
I83
ssS'Rv2437'
p55
(dp56
g3
I438
sg4
I17
ssS'Rv1808'
p57
(dp58
g3
I1233
sg4
I2
ssS'Rv3811'
p59
(dp60
g3
I1662
sg4
I41
ssS'Rv1633'
p61
(dp62
g3
I2277
sg4
I116
ssS'Rv1738'
p63
(dp64
g3
I333
sg4
I47
ssS'Rv2132'
p65
(dp66
g3
I246
sg4
I14
ssS'Rv1682'
p67
(dp68
g3
I849
sg4
I-70
ssS'Rv1638'
p69
(dp70
g3
I2943
sg4
I2741
ssS'Rv2138'
p71
(dp72
g3
I1026
sg4
I-52
ssS'Rv2139'
p73
(dp74
g3
I1119
sg4
I44
ssS'Rv2649'
p75
(dp76
g3
I885
sg4
I-103
ssS'Rv2647'
p77
(dp78
g3
I465
sg4
I95
ssS'Rv0907'
p79
(dp80
g3
I1422
sg4
I-178
ssS'Rv1595'
p81
(dp82
g3
I1587
sg4
I2
ssS'Rv3338'
p83
(dp84
g3
I633
sg4
I-13
ssS'Rv1599'
p85
(dp86
g3
I1335
sg4
I17
ssS'Rv0863'
p87
(dp88
g3
I234
sg4
I-49
ssS'Rv1025'
p89
(dp90
g3
I492
sg4
I23
ssS'Rv1021'
p91
(dp92
g3
I981
sg4
I2
ssS'Rv0515'
p93
(dp94
g3
I1443
sg4
I-70
ssS'Rv0517'
p95
(dp96
g3
I1233
sg4
I-79
ssS'Rv2000'
p97
(dp98
g3
I1443
sg4
I-172
ssS'Rv1748'
p99
(dp100
g3
I672
sg4
I-61
ssS'Rv1747'
p101
(dp102
g3
I2592
sg4
I-7
ssS'Rv1740'
p103
(dp104
g3
I195
sg4
I-19
ssS'Rv1163'
p105
(dp106
g3
I666
sg4
I59
ssS'Rv3777'
p107
(dp108
g3
I978
sg4
I-10
ssS'Rv1207'
p109
(dp110
g3
I825
sg4
I-133
ssS'Rv1857'
p111
(dp112
g3
I747
sg4
I-40
ssS'Rv3145'
p113
(dp114
g3
I492
sg4
I104
ssS'Rv3670'
p115
(dp116
g3
I963
sg4
I-22
ssS'Rv1366A'
p117
(dp118
g3
I228
sg4
I-34
ssS'Rv3386'
p119
(dp120
g3
I780
sg4
I74
ssS'Rv0345'
p121
(dp122
g3
I417
sg4
I5
ssS'Rv0347'
p123
(dp124
g3
I813
sg4
I-175
ssS'Rv0349'
p125
(dp126
g3
I417
sg4
I-244
ssS'Rv1568'
p127
(dp128
g3
I1380
sg4
I65
ssS'Rv1110'
p129
(dp130
g3
I1035
sg4
I26
ssS'Rv1440'
p131
(dp132
g3
I354
sg4
I119
ssS'Rv0460'
p133
(dp134
g3
I279
sg4
I38
ssS'Rv0461'
p135
(dp136
g3
I570
sg4
I44
ssS'Rv1560'
p137
(dp138
g3
I204
sg4
I-16
ssS'Rv2917'
p139
(dp140
g3
I1809
sg4
I-73
ssS'Rv3585'
p141
(dp142
g3
I1332
sg4
I-112
ssS'Rv0161'
p143
(dp144
g3
I1374
sg4
I23
ssS'Rv3589'
p145
(dp146
g3
I888
sg4
I-28
ssS'Rv0164'
p147
(dp148
g3
I441
sg4
I-46
ssS'Rv3754'
p149
(dp150
g3
I945
sg4
I38
ssS'Rv1807'
p151
(dp152
g3
I1212
sg4
I11
ssS'Rv1809'
p153
(dp154
g3
I1476
sg4
I68
ssS'Rv2311'
p155
(dp156
g3
I597
sg4
I71
ssS'Rv2080'
p157
(dp158
g3
I573
sg4
I8
ssS'Rv1366'
p159
(dp160
g3
I792
sg4
I-31
ssS'Rv0012'
p161
(dp162
g3
I744
sg4
I-46
ssS'Rv2541'
p163
(dp164
g3
I315
sg4
I-94
ssS'Rv2543'
p165
(dp166
g3
I558
sg4
I-103
ssS'Rv2545'
p167
(dp168
g3
I306
sg4
I26
ssS'Rv2544'
p169
(dp170
g3
I561
sg4
I-103
ssS'Rv2547'
p171
(dp172
g3
I273
sg4
I14
ssS'Rv2331A'
p173
(dp174
g3
I129
sg4
I-211
ssS'Rv1945'
p175
(dp176
g3
I1449
sg4
I83
ssS'Rv3516'
p177
(dp178
g3
I801
sg4
I8
ssS'Rv3623'
p179
(dp180
g3
I837
sg4
I113
ssS'Rv0088'
p181
(dp182
g3
I480
sg4
I-196
ssS'Rv0087'
p183
(dp184
g3
I1476
sg4
I-4
ssS'Rv1790'
p185
(dp186
g3
I1092
sg4
I38
ssS'Rv1792'
p187
(dp188
g3
I120
sg4
I-178
ssS'Rv1496'
p189
(dp190
g3
I1005
sg4
I-7
ssS'Rv1497'
p191
(dp192
g3
I1287
sg4
I-4
ssS'Rv3454'
p193
(dp194
g3
I1332
sg4
I62
ssS'Rv1700'
p195
(dp196
g3
I540
sg4
I-85
ssS'Rv1062'
p197
(dp198
g3
I885
sg4
I26
ssS'Rv1708'
p199
(dp200
g3
I864
sg4
I-94
ssS'Rv3209'
p201
(dp202
g3
I294
sg4
I-268
ssS'Rv0691A'
p203
(dp204
g3
I90
sg4
I-100
ssS'Rv2980'
p205
(dp206
g3
I576
sg4
I29
ssS'Rv0452'
p207
(dp208
g3
I762
sg4
I50
ssS'Rv1663'
p209
(dp210
g3
I1533
sg4
I23
ssS'Rv3635'
p211
(dp212
g3
I1761
sg4
I-16
ssS'Rv3637'
p213
(dp214
g3
I366
sg4
I-136
ssS'Rv1089'
p215
(dp216
g3
I306
sg4
I-58
ssS'Rv2618'
p217
(dp218
g3
I729
sg4
I50
ssS'Rv1124'
p219
(dp220
g3
I906
sg4
I-46
ssS'Rv1125'
p221
(dp222
g3
I1230
sg4
I-16
ssS'Rv2713'
p223
(dp224
g3
I1416
sg4
I8
ssS'Rv3067'
p225
(dp226
g3
I546
sg4
I134
ssS'Rv3066'
p227
(dp228
g3
I534
sg4
I-76
ssS'Rv0838'
p229
(dp230
g3
I612
sg4
I-160
ssS'Rv3342'
p231
(dp232
g3
I711
sg4
I-22
ssS'Rv0930'
p233
(dp234
g3
I915
sg4
I-13
ssS'Rv1408'
p235
(dp236
g3
I690
sg4
I-10
ssS'Rv1401'
p237
(dp238
g3
I696
sg4
I92
ssS'Rv1404'
p239
(dp240
g3
I528
sg4
I44
ssS'Rv1011'
p241
(dp242
g3
I957
sg4
I35
ssS'Rv1237'
p243
(dp244
g3
I840
sg4
I14
ssS'Rv1235'
p245
(dp246
g3
I1401
sg4
I-7
ssS'Rv1339'
p247
(dp248
g3
I759
sg4
I-64
ssS'Rv1337'
p249
(dp250
g3
I684
sg4
I-40
ssS'Rv1334'
p251
(dp252
g3
I414
sg4
I-28
ssS'Rv1332'
p253
(dp254
g3
I591
sg4
I-67
ssS'Rv2843'
p255
(dp256
g3
I486
sg4
I-61
ssS'Rv3774'
p257
(dp258
g3
I885
sg4
I59
ssS'Rv3118'
p259
(dp260
g3
I273
sg4
I-31
ssS'Rv3395A'
p261
(dp262
g3
I711
sg4
I83
ssS'Rv0681'
p263
(dp264
g3
I657
sg4
I65
ssS'Rv1241'
p265
(dp266
g3
I270
sg4
I8
ssS'Rv1244'
p267
(dp268
g3
I936
sg4
I74
ssS'Rv0333'
p269
(dp270
g3
I435
sg4
I59
ssS'Rv1539'
p271
(dp272
g3
I507
sg4
I-103
ssS'Rv0336'
p273
(dp274
g3
I1443
sg4
I-70
ssS'Rv0113'
p275
(dp276
g3
I624
sg4
I32
ssS'Rv2866'
p277
(dp278
g3
I252
sg4
I-13
ssS'Rv0119'
p279
(dp280
g3
I1629
sg4
I50
ssS'Rv0052'
p281
(dp282
g3
I639
sg4
I74
ssS'Rv1904'
p283
(dp284
g3
I435
sg4
I2
ssS'Rv2944'
p285
(dp286
g3
I384
sg4
I-334
ssS'Rv2941'
p287
(dp288
g3
I1863
sg4
I119
ssS'Rv2942'
p289
(dp290
g3
I2802
sg4
I38
ssS'Rv2342'
p291
(dp292
g3
I294
sg4
I35
ssS'Rv2341'
p293
(dp294
g3
I435
sg4
I14
ssS'Rv2227'
p295
(dp296
g3
I486
sg4
I-217
ssS'Rv3792'
p297
(dp298
g3
I1893
sg4
I-40
ssS'Rv3790'
p299
(dp300
g3
I1386
sg4
I-7
ssS'Rv0750'
p301
(dp302
g3
I270
sg4
I23
ssS'Rv0615'
p303
(dp304
g3
I240
sg4
I-4
ssS'Rv0614'
p305
(dp306
g3
I750
sg4
I-244
ssS'Rv0612'
p307
(dp308
g3
I549
sg4
I-58
ssS'Rv0187'
p309
(dp310
g3
I657
sg4
I-7
ssS'Rv3835'
p311
(dp312
g3
I1359
sg4
I8
ssS'Rv3192'
p313
(dp314
g3
I465
sg4
I2
ssS'Rv3521'
p315
(dp316
g3
I1005
sg4
I92
ssS'Rv3563'
p317
(dp318
g3
I954
sg4
I-7
ssS'Rv1997'
p319
(dp320
g3
I2664
sg4
I-55
ssS'Rv1995'
p321
(dp322
g3
I729
sg4
I-40
ssS'Rv1626'
p323
(dp324
g3
I627
sg4
I8
ssS'Rv1629'
p325
(dp326
g3
I2664
sg4
I-52
ssS'Rv2082'
p327
(dp328
g3
I1275
sg4
I-892
ssS'Rv2084'
p329
(dp330
g3
I1143
sg4
I5
ssS'Rv3840'
p331
(dp332
g3
I363
sg4
I-52
ssS'Rv1954A'
p333
(dp334
g3
I177
sg4
I-127
ssS'Rv1190'
p335
(dp336
g3
I873
sg4
I-7
ssS'Rv3304'
p337
(dp338
g3
I600
sg4
I119
ssS'Rv3713'
p339
(dp340
g3
I708
sg4
I11
ssS'Rv1052'
p341
(dp342
g3
I252
sg4
I-139
ssS'Rv0508'
p343
(dp344
g3
I279
sg4
I-16
ssS'Rv1057'
p345
(dp346
g3
I1233
sg4
I50
ssS'Rv1192'
p347
(dp348
g3
I828
sg4
I11
ssS'Rv1059'
p349
(dp350
g3
I1059
sg4
I-7
ssS'Rv0506'
p351
(dp352
g3
I438
sg4
I-7
ssS'Rv1195'
p353
(dp354
g3
I306
sg4
I5
ssS'Rv2405'
p355
(dp356
g3
I546
sg4
I-25
ssS'Rv1697'
p357
(dp358
g3
I1176
sg4
I-7
ssS'Rv2019'
p359
(dp360
g3
I351
sg4
I-67
ssS'Rv2016'
p361
(dp362
g3
I612
sg4
I35
ssS'Rv1751'
p363
(dp364
g3
I1239
sg4
I-145
ssS'Rv2012'
p365
(dp366
g3
I435
sg4
I-61
ssS'Rv0488'
p367
(dp368
g3
I627
sg4
I20
ssS'Rv0489'
p369
(dp370
g3
I771
sg4
I20
ssS'Rv1171'
p371
(dp372
g3
I363
sg4
I-79
ssS'Rv1173'
p373
(dp374
g3
I2430
sg4
I-142
ssS'Rv0486'
p375
(dp376
g3
I1434
sg4
I-10
ssS'Rv1277'
p377
(dp378
g3
I1152
sg4
I-103
ssS'Rv3157'
p379
(dp380
g3
I1665
sg4
I2
ssS'Rv1874'
p381
(dp382
g3
I705
sg4
I17
ssS'Rv1285'
p383
(dp384
g3
I999
sg4
I68
ssS'Rv0378'
p385
(dp386
g3
I225
sg4
I2
ssS'Rv3399'
p387
(dp388
g3
I921
sg4
I-127
ssS'Rv3013'
p389
(dp390
g3
I666
sg4
I8
ssS'Rv0803'
p391
(dp392
g3
I2301
sg4
I35
ssS'Rv1575'
p393
(dp394
g3
I909
sg4
I407
ssS'Rv0570'
p395
(dp396
g3
I2031
sg4
I-49
ssS'Rv0396'
p397
(dp398
g3
I417
sg4
I23
ssS'Rv3593'
p399
(dp400
g3
I1317
sg4
I-43
ssS'Rv2306B'
p401
(dp402
g3
I426
sg4
I-10
ssS'Rv0393'
p403
(dp404
g3
I987
sg4
I-340
ssS'Rv0390'
p405
(dp406
g3
I381
sg4
I-43
ssS'Rv0391'
p407
(dp408
g3
I1221
sg4
I-13
ssS'Rv0252'
p409
(dp410
g3
I2511
sg4
I-52
ssS'Rv1830'
p411
(dp412
g3
I633
sg4
I-46
ssS'Rv3698'
p413
(dp414
g3
I1539
sg4
I8
ssS'Rv1834'
p415
(dp416
g3
I765
sg4
I-103
ssS'Rv0655'
p417
(dp418
g3
I1011
sg4
I-70
ssS'Rv2301'
p419
(dp420
g3
I660
sg4
I-34
ssS'Rv0895'
p421
(dp422
g3
I1425
sg4
I-94
ssS'Rv0894'
p423
(dp424
g3
I1110
sg4
I-73
ssS'Rv0896'
p425
(dp426
g3
I1518
sg4
I221
ssS'Rv0892'
p427
(dp428
g3
I1530
sg4
I41
ssS'Rv0713'
p429
(dp430
g3
I861
sg4
I-82
ssS'Rv0710'
p431
(dp432
g3
I408
sg4
I-4
ssS'Rv2289'
p433
(dp434
g3
I849
sg4
I65
ssS'Rv3554'
p435
(dp436
g3
I2019
sg4
I-40
ssS'Rv0028'
p437
(dp438
g3
I228
sg4
I-79
ssS'Rv0029'
p439
(dp440
g3
I876
sg4
I-223
ssS'Rv3876'
p441
(dp442
g3
I927
sg4
I-1075
ssS'Rv2287'
p443
(dp444
g3
I1593
sg4
I-37
ssS'Rv3524'
p445
(dp446
g3
I927
sg4
I-106
ssS'Rv1955'
p447
(dp448
g3
I354
sg4
I-25
ssS'Rv0562'
p449
(dp450
g3
I990
sg4
I-19
ssS'Rv3281'
p451
(dp452
g3
I492
sg4
I-43
ssS'Rv3280'
p453
(dp454
g3
I1674
sg4
I26
ssS'Rv3283'
p455
(dp456
g3
I966
sg4
I71
ssS'Rv0315'
p457
(dp458
g3
I855
sg4
I-31
ssS'Rv3449'
p459
(dp460
g3
I1374
sg4
I5
ssS'Rv2577'
p461
(dp462
g3
I1398
sg4
I-193
ssS'Rv2279'
p463
(dp464
g3
I885
sg4
I-103
ssS'Rv2573'
p465
(dp466
g3
I828
sg4
I86
ssS'Rv0099'
p467
(dp468
g3
I1599
sg4
I-25
ssS'Rv2595'
p469
(dp470
g3
I213
sg4
I-34
ssS'Rv2459'
p471
(dp472
g3
I1617
sg4
I89
ssS'Rv1988'
p473
(dp474
g3
I453
sg4
I-88
ssS'Rv3908'
p475
(dp476
g3
I663
sg4
I-85
ssS'Rv1711'
p477
(dp478
g3
I762
sg4
I-4
ssS'Rv2884'
p479
(dp480
g3
I702
sg4
I-58
ssS'Rv1714'
p481
(dp482
g3
I804
sg4
I-10
ssS'Rv3860'
p483
(dp484
g3
I876
sg4
I-298
ssS'Rv2114'
p485
(dp486
g3
I642
sg4
I17
ssS'Rv2628'
p487
(dp488
g3
I255
sg4
I-109
ssS'Rv1130'
p489
(dp490
g3
I1500
sg4
I-82
ssS'Rv2294'
p491
(dp492
g3
I1164
sg4
I-61
ssS'Rv0842'
p493
(dp494
g3
I1329
sg4
I35
ssS'Rv3630'
p495
(dp496
g3
I1275
sg4
I-22
ssS'Rv0847'
p497
(dp498
g3
I417
sg4
I23
ssS'Rv0848'
p499
(dp500
g3
I1215
sg4
I95
ssS'Rv2808'
p501
(dp502
g3
I216
sg4
I-43
ssS'Rv0530'
p503
(dp504
g3
I1212
sg4
I-7
ssS'Rv2193'
p505
(dp506
g3
I543
sg4
I-70
ssS'Rv0433'
p507
(dp508
g3
I1152
sg4
I20
ssS'Rv0431'
p509
(dp510
g3
I474
sg4
I-22
ssS'Rv0539'
p511
(dp512
g3
I657
sg4
I23
ssS'Rv3062'
p513
(dp514
g3
I1494
sg4
I-31
ssS'Rv2698'
p515
(dp516
g3
I432
sg4
I-55
ssS'Rv1006'
p517
(dp518
g3
I1587
sg4
I-118
ssS'Rv1221'
p519
(dp520
g3
I633
sg4
I-142
ssS'Rv1223'
p521
(dp522
g3
I1575
sg4
I-13
ssS'Rv1341'
p523
(dp524
g3
I606
sg4
I-10
ssS'Rv1344'
p525
(dp526
g3
I255
sg4
I-67
ssS'Rv0697'
p527
(dp528
g3
I1359
sg4
I-82
ssS'Rv0695'
p529
(dp530
g3
I666
sg4
I-91
ssS'Rv2994'
p531
(dp532
g3
I1296
sg4
I-43
ssS'Rv1878'
p533
(dp534
g3
I1362
sg4
I8
ssS'Rv3653'
p535
(dp536
g3
I729
sg4
I140
ssS'Rv3129'
p537
(dp538
g3
I315
sg4
I-19
ssS'Rv3122'
p539
(dp540
g3
I426
sg4
I-46
ssS'Rv3124'
p541
(dp542
g3
I894
sg4
I23
ssS'Rv0282'
p543
(dp544
g3
I1896
sg4
I32
ssS'Rv0998'
p545
(dp546
g3
I951
sg4
I-52
ssS'Rv1509'
p547
(dp548
g3
I840
sg4
I-43
ssS'Rv0443'
p549
(dp550
g3
I558
sg4
I41
ssS'Rv2874'
p551
(dp552
g3
I1749
sg4
I-340
ssS'Rv0102'
p553
(dp554
g3
I1923
sg4
I-64
ssS'Rv0100'
p555
(dp556
g3
I249
sg4
I11
ssS'Rv3407'
p557
(dp558
g3
I177
sg4
I-124
ssS'Rv3408'
p559
(dp560
g3
I402
sg4
I-10
ssS'Rv1916'
p561
(dp562
g3
I1227
sg4
I29
ssS'Rv2232'
p563
(dp564
g3
I633
sg4
I-94
ssS'Rv2339'
p565
(dp566
g3
I2889
sg4
I20
ssS'Rv2237'
p567
(dp568
g3
I816
sg4
I47
ssS'Rv0740'
p569
(dp570
g3
I609
sg4
I80
ssS'Rv0742'
p571
(dp572
g3
I519
sg4
I-10
ssS'Rv0192'
p573
(dp574
g3
I765
sg4
I-337
ssS'Rv2799'
p575
(dp576
g3
I588
sg4
I-43
ssS'Rv0195'
p577
(dp578
g3
I768
sg4
I131
ssS'Rv3821'
p579
(dp580
g3
I798
sg4
I83
ssS'Rv3437'
p581
(dp582
g3
I477
sg4
I74
ssS'Rv2090'
p583
(dp584
g3
I921
sg4
I-262
ssS'Rv3475'
p585
(dp586
g3
I885
sg4
I-103
ssS'Rv1618'
p587
(dp588
g3
I921
sg4
I17
ssS'Rv1968'
p589
(dp590
g3
I1245
sg4
I11
ssS'Rv3578'
p591
(dp592
g3
I1209
sg4
I-34
ssS'Rv1614'
p593
(dp594
g3
I1410
sg4
I2
ssS'Rv1615'
p595
(dp596
g3
I396
sg4
I-46
ssS'Rv3877'
p597
(dp598
g3
I1464
sg4
I-73
ssS'Rv3574'
p599
(dp600
g3
I663
sg4
I62
ssS'Rv2099c'
p601
(dp602
g3
I300
sg4
I125
ssS'Rv1612'
p603
(dp604
g3
I1266
sg4
I-4
ssS'Rv1961'
p605
(dp606
g3
I342
sg4
I-154
ssS'Rv2248'
p607
(dp608
g3
I888
sg4
I71
ssS'Rv3182'
p609
(dp610
g3
I339
sg4
I-7
ssS'Rv3235'
p611
(dp612
g3
I552
sg4
I-91
ssS'Rv2241'
p613
(dp614
g3
I2793
sg4
I86
ssS'Rv2700'
p615
(dp616
g3
I414
sg4
I-238
ssS'Rv3318'
p617
(dp618
g3
I1749
sg4
I-25
ssS'Rv3316'
p619
(dp620
g3
I339
sg4
I-73
ssS'Rv1044'
p621
(dp622
g3
I585
sg4
I-40
ssS'Rv1769'
p623
(dp624
g3
I1203
sg4
I-43
ssS'Rv1681'
p625
(dp626
g3
I996
sg4
I2
ssS'Rv2069'
p627
(dp628
g3
I564
sg4
I5
ssS'Rv1760'
p629
(dp630
g3
I1407
sg4
I-103
ssS'Rv2063'
p631
(dp632
g3
I153
sg4
I-82
ssS'Rv1689'
p633
(dp634
g3
I1266
sg4
I-10
ssS'Rv1764'
p635
(dp636
g3
I885
sg4
I-103
ssS'Rv1767'
p637
(dp638
g3
I390
sg4
I29
ssS'Rv1140'
p639
(dp640
g3
I723
sg4
I-127
ssS'Rv1146'
p641
(dp642
g3
I1470
sg4
I56
ssS'Rv1265'
p643
(dp644
g3
I555
sg4
I-127
ssS'Rv0494'
p645
(dp646
g3
I717
sg4
I-13
ssS'Rv0496'
p647
(dp648
g3
I1035
sg4
I47
ssS'Rv3006'
p649
(dp650
g3
I1275
sg4
I152
ssS'Rv3004'
p651
(dp652
g3
I378
sg4
I38
ssS'Rv0796'
p653
(dp654
g3
I885
sg4
I-103
ssS'Rv3008'
p655
(dp656
g3
I570
sg4
I-55
ssS'Rv1540'
p657
(dp658
g3
I885
sg4
I-43
ssS'Rv0818'
p659
(dp660
g3
I765
sg4
I-4
ssS'Rv0404'
p661
(dp662
g3
I1206
sg4
I-553
ssS'Rv3369'
p663
(dp664
g3
I411
sg4
I-25
ssS'Rv1549'
p665
(dp666
g3
I432
sg4
I-97
ssS'Rv3360'
p667
(dp668
g3
I264
sg4
I-106
ssS'Rv0812'
p669
(dp670
g3
I888
sg4
I17
ssS'Rv0568'
p671
(dp672
g3
I1401
sg4
I-19
ssS'Rv0567'
p673
(dp674
g3
I1023
sg4
I2
ssS'Rv1464'
p675
(dp676
g3
I1254
sg4
I461
ssS'Rv1460'
p677
(dp678
g3
I735
sg4
I-73
ssS'Rv0385'
p679
(dp680
g3
I1278
sg4
I104
ssS'Rv3216'
p681
(dp682
g3
I291
sg4
I-194
ssS'Rv0228'
p683
(dp684
g3
I1299
sg4
I74
ssS'Rv1312'
p685
(dp686
g3
I432
sg4
I-13
ssS'Rv0214'
p687
(dp688
g3
I1518
sg4
I-97
ssS'Rv2932'
p689
(dp690
g3
I4614
sg4
I-4
ssS'Rv3728'
p691
(dp692
g3
I3075
sg4
I-124
ssS'Rv3729'
p693
(dp694
g3
I2367
sg4
I35
ssS'Rv3720'
p695
(dp696
g3
I1284
sg4
I20
ssS'Rv3689'
p697
(dp698
g3
I1233
sg4
I-124
ssS'Rv1824'
p699
(dp700
g3
I333
sg4
I-34
ssS'Rv1823'
p701
(dp702
g3
I930
sg4
I5
ssS'Rv3684'
p703
(dp704
g3
I1107
sg4
I65
ssS'Rv1821'
p705
(dp706
g3
I2337
sg4
I-91
ssS'Rv1388'
p707
(dp708
g3
I318
sg4
I-256
ssS'Rv0702'
p709
(dp710
g3
I672
sg4
I-4
ssS'Rv3690'
p711
(dp712
g3
I702
sg4
I47
ssS'Rv2298'
p713
(dp714
g3
I1068
sg4
I95
ssS'Rv0038'
p715
(dp716
g3
I633
sg4
I23
ssS'Rv2290'
p717
(dp718
g3
I234
sg4
I-283
ssS'Rv3863'
p719
(dp720
g3
I1113
sg4
I299
ssS'Rv0032'
p721
(dp722
g3
I2316
sg4
I-94
ssS'Rv1922'
p723
(dp724
g3
I1083
sg4
I-34
ssS'Rv1923'
p725
(dp726
g3
I1281
sg4
I-61
ssS'Rv2191'
p727
(dp728
g3
I1944
sg4
I5
ssS'Rv2805'
p729
(dp730
g3
I432
sg4
I26
ssS'Rv2807'
p731
(dp732
g3
I1152
sg4
I-4
ssS'Rv0634A'
p733
(dp734
g3
I213
sg4
I-40
ssS'Rv2206'
p735
(dp736
g3
I495
sg4
I-217
ssS'Rv2562'
p737
(dp738
g3
I507
sg4
I116
ssS'Rv2208'
p739
(dp740
g3
I747
sg4
I-4
ssS'Rv2566'
p741
(dp742
g3
I3342
sg4
I-82
ssS'Rv3187'
p743
(dp744
g3
I885
sg4
I-103
ssS'Rv3185'
p745
(dp746
g3
I885
sg4
I-103
ssS'Rv0147'
p747
(dp748
g3
I1473
sg4
I-49
ssS'Rv3183'
p749
(dp750
g3
I324
sg4
I-7
ssS'Rv1678'
p751
(dp752
g3
I909
sg4
I5
ssS'Rv1641'
p753
(dp754
g3
I522
sg4
I-85
ssS'Rv2893'
p755
(dp756
g3
I918
sg4
I-61
ssS'Rv1649'
p757
(dp758
g3
I1059
sg4
I32
ssS'Rv3114'
p759
(dp760
g3
I555
sg4
I23
ssS'Rv2102'
p761
(dp762
g3
I834
sg4
I116
ssS'Rv2106'
p763
(dp764
g3
I885
sg4
I-103
ssS'Rv2636'
p765
(dp766
g3
I630
sg4
I-49
ssS'Rv2630'
p767
(dp768
g3
I393
sg4
I-148
ssS'Rv0852'
p769
(dp770
g3
I735
sg4
I-103
ssS'Rv3326'
p771
(dp772
g3
I885
sg4
I-103
ssS'Rv3044'
p773
(dp774
g3
I984
sg4
I-97
ssS'Rv0918'
p775
(dp776
g3
I456
sg4
I-22
ssS'Rv1589'
p777
(dp778
g3
I1098
sg4
I47
ssS'Rv1420'
p779
(dp780
g3
I1884
sg4
I-58
ssS'Rv1425'
p781
(dp782
g3
I1320
sg4
I-61
ssS'Rv0526'
p783
(dp784
g3
I612
sg4
I-40
ssS'Rv0912'
p785
(dp786
g3
I474
sg4
I23
ssS'Rv2747'
p787
(dp788
g3
I495
sg4
I-31
ssS'Rv1030'
p789
(dp790
g3
I2127
sg4
I-4
ssS'Rv1028A'
p791
(dp792
g3
I99
sg4
I5
ssS'Rv1359'
p793
(dp794
g3
I606
sg4
I-148
ssS'Rv1211'
p795
(dp796
g3
I168
sg4
I-61
ssS'Rv3766'
p797
(dp798
g3
I825
sg4
I134
ssS'Rv1351'
p799
(dp800
g3
I273
sg4
I-58
ssS'Rv3091'
p801
(dp802
g3
I1761
sg4
I68
ssS'Rv1867'
p803
(dp804
g3
I1461
sg4
I-25
ssS'Rv3035'
p805
(dp806
g3
I1008
sg4
I-76
ssS'Rv3032'
p807
(dp808
g3
I1233
sg4
I-13
ssS'Rv3031'
p809
(dp810
g3
I1560
sg4
I-22
ssS'Rv3577'
p811
(dp812
g3
I921
sg4
I53
ssS'Rv3178'
p813
(dp814
g3
I516
sg4
I155
ssS'Rv1100'
p815
(dp816
g3
I579
sg4
I-124
ssS'Rv1453'
p817
(dp818
g3
I1299
sg4
I32
ssS'Rv0593'
p819
(dp820
g3
I1197
sg4
I-13
ssS'Rv0987'
p821
(dp822
g3
I2451
sg4
I-118
ssS'Rv2511'
p823
(dp824
g3
I699
sg4
I50
ssS'Rv0981'
p825
(dp826
g3
I693
sg4
I5
ssS'Rv1510'
p827
(dp828
g3
I1299
sg4
I47
ssS'Rv1610'
p829
(dp830
g3
I660
sg4
I-49
ssS'Rv0175'
p831
(dp832
g3
I708
sg4
I65
ssS'Rv3479'
p833
(dp834
g3
I3249
sg4
I182
ssS'Rv1816'
p835
(dp836
g3
I687
sg4
I-19
ssS'Rv0186'
p837
(dp838
g3
I2076
sg4
I89
ssS'Rv1814'
p839
(dp840
g3
I945
sg4
I41
ssS'Rv0183'
p841
(dp842
g3
I897
sg4
I56
ssS'Rv0771'
p843
(dp844
g3
I432
sg4
I-4
ssS'Rv0775'
p845
(dp846
g3
I573
sg4
I-52
ssS'Rv0050'
p847
(dp848
g3
I2463
sg4
I425
ssS'Rv1116'
p849
(dp850
g3
I174
sg4
I-13
ssS'Rv0007'
p851
(dp852
g3
I306
sg4
I-610
ssS'Rv0004'
p853
(dp854
g3
I516
sg4
I-49
ssS'Rv0005'
p855
(dp856
g3
I2145
sg4
I116
ssS'Rv0062'
p857
(dp858
g3
I924
sg4
I-220
ssS'Rv0001'
p859
(dp860
g3
I1491
sg4
I-34
ssS'Rv1087A'
p861
(dp862
g3
I312
sg4
I-10
ssS'Rv0009'
p863
(dp864
g3
I549
sg4
I17
ssS'Rv3263'
p865
(dp866
g3
I1590
sg4
I-73
ssS'Rv3267'
p867
(dp868
g3
I1494
sg4
I-4
ssS'Rv3268'
p869
(dp870
g3
I741
sg4
I50
ssS'Rv3467'
p871
(dp872
g3
I960
sg4
I5
ssS'Rv1603'
p873
(dp874
g3
I735
sg4
I-4
ssS'Rv1974'
p875
(dp876
g3
I360
sg4
I-19
ssS'Rv2558'
p877
(dp878
g3
I624
sg4
I-88
ssS'Rv1973'
p879
(dp880
g3
I468
sg4
I-16
ssS'Rv2394'
p881
(dp882
g3
I1890
sg4
I-43
ssS'Rv2391'
p883
(dp884
g3
I1668
sg4
I-25
ssS'Rv2393'
p885
(dp886
g3
I813
sg4
I-34
ssS'Rv2251'
p887
(dp888
g3
I1215
sg4
I-214
ssS'Rv2471'
p889
(dp890
g3
I1563
sg4
I-79
ssS'Rv2473'
p891
(dp892
g3
I465
sg4
I-253
ssS'Rv3373'
p893
(dp894
g3
I627
sg4
I-16
ssS'Rv0955'
p895
(dp896
g3
I1359
sg4
I-10
ssS'Rv1489A'
p897
(dp898
g3
I210
sg4
I-22
ssS'Rv0952'
p899
(dp900
g3
I903
sg4
I-10
ssS'Rv1777'
p901
(dp902
g3
I1215
sg4
I-91
ssS'Rv3215'
p903
(dp904
g3
I1107
sg4
I-13
ssS'Rv1078'
p905
(dp906
g3
I477
sg4
I-247
ssS'Rv1772'
p907
(dp908
g3
I285
sg4
I-28
ssS'Rv1770'
p909
(dp910
g3
I1206
sg4
I-82
ssS'Rv1076'
p911
(dp912
g3
I1068
sg4
I173
ssS'Rv1073'
p913
(dp914
g3
I861
sg4
I8
ssS'Rv2173'
p915
(dp916
g3
I993
sg4
I-67
ssS'Rv2176'
p917
(dp918
g3
I1173
sg4
I-28
ssS'Rv1676'
p919
(dp920
g3
I546
sg4
I-160
ssS'Rv2310'
p921
(dp922
g3
I342
sg4
I-4
ssS'Rv3098A'
p923
(dp924
g3
I318
sg4
I-4
ssS'Rv2074'
p925
(dp926
g3
I408
sg4
I-7
ssS'Rv1671'
p927
(dp928
g3
I441
sg4
I47
ssS'Rv1290A'
p929
(dp930
g3
I369
sg4
I53
ssS'Rv1150'
p931
(dp932
g3
I438
sg4
I-115
ssS'Rv0782'
p933
(dp934
g3
I1509
sg4
I-151
ssS'Rv0787'
p935
(dp936
g3
I672
sg4
I-289
ssS'Rv3170'
p937
(dp938
g3
I1365
sg4
I17
ssS'Rv0413'
p939
(dp940
g3
I594
sg4
I-61
ssS'Rv1550'
p941
(dp942
g3
I1389
sg4
I-328
ssS'Rv1557'
p943
(dp944
g3
I1179
sg4
I-16
ssS'Rv1556'
p945
(dp946
g3
I528
sg4
I-70
ssS'Rv3375'
p947
(dp948
g3
I1440
sg4
I11
ssS'Rv3374'
p949
(dp950
g3
I246
sg4
I-4
ssS'Rv0826'
p951
(dp952
g3
I1083
sg4
I26
ssS'Rv2672'
p953
(dp954
g3
I1557
sg4
I-31
ssS'Rv1418'
p955
(dp956
g3
I630
sg4
I-58
ssS'Rv1412'
p957
(dp958
g3
I573
sg4
I-34
ssS'Rv0553'
p959
(dp960
g3
I981
sg4
I8
ssS'Rv0557'
p961
(dp962
g3
I1227
sg4
I89
ss.